target datalayout = "e-m:e-p270:32:32-p271:32:32-p272:64:64-i64:64-i128:128-f80:128-n8:16:32:64-S128"
target triple = "x86_64-pc-linux-gnu"

%struct.lexbor_shs_entry_t = type { ptr, ptr, i64, i64 }
%struct.lxb_tag_data_t = type { %struct.lexbor_hash_entry, i64, i64, i8 }
%struct.lexbor_hash_entry = type { %union.anon, i64, ptr }
%union.anon = type { ptr, [16 x i8] }

@lexbor_hash_insert_raw = external global ptr, align 8

; Function Attrs: nounwind uwtable
define hidden ptr @lxb_tag_append(ptr noundef %0, i64 noundef %1, ptr noundef %2, i64 noundef %3) #0 {
  %5 = alloca ptr, align 8
  %6 = alloca ptr, align 8
  %7 = alloca i64, align 8
  %8 = alloca ptr, align 8
  %9 = alloca i64, align 8
  %10 = alloca ptr, align 8
  %11 = alloca ptr, align 8
  store ptr %0, ptr %6, align 8
  store i64 %1, ptr %7, align 8
  store ptr %2, ptr %8, align 8
  store i64 %3, ptr %9, align 8
  %12 = load ptr, ptr %8, align 8
  %13 = load i64, ptr %9, align 8
  %14 = call ptr @lexbor_shs_entry_get_static(ptr noundef @lxb_tag_res_shs_data_default, ptr noundef %12, i64 noundef %13)
  store ptr %14, ptr %11, align 8
  %15 = load ptr, ptr %11, align 8
  %16 = icmp ne ptr %15, null
  br i1 %16, label %17, label %21

17:                                               ; preds = %4
  %18 = load ptr, ptr %11, align 8
  %19 = getelementptr inbounds %struct.lexbor_shs_entry_t, ptr %18, i32 0, i32 1
  %20 = load ptr, ptr %19, align 8
  store ptr %20, ptr %5, align 8
  br label %44

21:                                               ; preds = %4
  %22 = load ptr, ptr %6, align 8
  %23 = load ptr, ptr @lexbor_hash_insert_raw, align 8
  %24 = load ptr, ptr %8, align 8
  %25 = load i64, ptr %9, align 8
  %26 = call ptr @lexbor_hash_insert(ptr noundef %22, ptr noundef %23, ptr noundef %24, i64 noundef %25)
  store ptr %26, ptr %10, align 8
  %27 = load ptr, ptr %10, align 8
  %28 = icmp eq ptr %27, null
  br i1 %28, label %29, label %30

29:                                               ; preds = %21
  store ptr null, ptr %5, align 8
  br label %44

30:                                               ; preds = %21
  %31 = load i64, ptr %7, align 8
  %32 = icmp eq i64 %31, 0
  br i1 %32, label %33, label %38

33:                                               ; preds = %30
  %34 = load ptr, ptr %10, align 8
  %35 = ptrtoint ptr %34 to i64
  %36 = load ptr, ptr %10, align 8
  %37 = getelementptr inbounds %struct.lxb_tag_data_t, ptr %36, i32 0, i32 1
  store i64 %35, ptr %37, align 8
  br label %42

38:                                               ; preds = %30
  %39 = load i64, ptr %7, align 8
  %40 = load ptr, ptr %10, align 8
  %41 = getelementptr inbounds %struct.lxb_tag_data_t, ptr %40, i32 0, i32 1
  store i64 %39, ptr %41, align 8
  br label %42

42:                                               ; preds = %38, %33
  %43 = load ptr, ptr %10, align 8
  store ptr %43, ptr %5, align 8
  br label %44

44:                                               ; preds = %42, %29, %17
  %45 = load ptr, ptr %5, align 8
  ret ptr %45
}