; Function Attrs: nounwind uwtable
define hidden ptr @lxb_tag_append(ptr noundef %0, i64 noundef %1, ptr noundef %2, i64 noundef %3) local_unnamed_addr #0 {
  %5 = tail call ptr @lexbor_shs_entry_get_static(ptr noundef nonnull @lxb_tag_res_shs_data_default, ptr noundef %2, i64 noundef %3) #5
  %.not = icmp eq ptr %5, null
  br i1 %.not, label %9, label %6

6:                                                ; preds = %4
  %7 = getelementptr inbounds i8, ptr %5, i64 8
  %8 = load ptr, ptr %7, align 8
  br label %20

9:                                                ; preds = %4
  %10 = load ptr, ptr @lexbor_hash_insert_raw, align 8
  %11 = tail call ptr @lexbor_hash_insert(ptr noundef %0, ptr noundef %10, ptr noundef %2, i64 noundef %3) #5
  %12 = icmp eq ptr %11, null
  br i1 %12, label %20, label %13

13:                                               ; preds = %9
  %14 = icmp eq i64 %1, 0
  br i1 %14, label %15, label %18

15:                                               ; preds = %13
  %16 = ptrtoint ptr %11 to i64
  %17 = getelementptr inbounds i8, ptr %11, i64 40
  store i64 %16, ptr %17, align 8
  br label %20

18:                                               ; preds = %13
  %19 = getelementptr inbounds i8, ptr %11, i64 40
  store i64 %1, ptr %19, align 8
  br label %20

20:                                               ; preds = %15, %18, %9, %6
  %.0 = phi ptr [ %8, %6 ], [ null, %9 ], [ %11, %18 ], [ %11, %15 ]
  ret ptr %.0
}